target datalayout = "e-m:e-p270:32:32-p271:32:32-p272:64:64-i64:64-i128:128-f80:128-n8:16:32:64-S128"
target triple = "x86_64-pc-linux-gnu"

%"class.llvm::SmallVectorBase" = type { ptr, i32, i32 }
%"class.llvm::SmallPtrSetImplBase.base" = type <{ ptr, ptr, i32, i32, i32 }>
%"class.std::_Function_base" = type { %"union.std::_Any_data", ptr }
%"union.std::_Any_data" = type { %"union.std::_Nocopy_types" }
%"union.std::_Nocopy_types" = type { { i64, i64 } }
%"class.llvm::BumpPtrAllocatorImpl" = type { ptr, ptr, %"class.llvm::SmallVector.45", %"class.llvm::SmallVector.50", i64, i64 }
%"class.llvm::SmallVector.45" = type { %"class.llvm::SmallVectorImpl.46", %"struct.llvm::SmallVectorStorage.49" }
%"class.llvm::SmallVectorImpl.46" = type { %"class.llvm::SmallVectorTemplateBase.47" }
%"class.llvm::SmallVectorTemplateBase.47" = type { %"class.llvm::SmallVectorTemplateCommon.48" }
%"class.llvm::SmallVectorTemplateCommon.48" = type { %"class.llvm::SmallVectorBase" }
%"struct.llvm::SmallVectorStorage.49" = type { [32 x i8] }
%"class.llvm::SmallVector.50" = type { %"class.llvm::SmallVectorImpl.51" }
%"class.llvm::SmallVectorImpl.51" = type { %"class.llvm::SmallVectorTemplateBase.52" }
%"class.llvm::SmallVectorTemplateBase.52" = type { %"class.llvm::SmallVectorTemplateCommon.53" }
%"class.llvm::SmallVectorTemplateCommon.53" = type { %"class.llvm::SmallVectorBase" }
%"class.llvm::MachineFunctionProperties" = type { %"class.std::bitset" }
%"class.std::bitset" = type { %"struct.std::_Base_bitset" }
%"struct.std::_Base_bitset" = type { i64 }
%"struct.llvm::LaneBitmask" = type { i64 }
%"class.llvm::SmallVector.145" = type { %"class.llvm::SmallVectorImpl.146", %"struct.llvm::SmallVectorStorage.150" }
%"class.llvm::SmallVectorImpl.146" = type { %"class.llvm::SmallVectorTemplateBase.147" }
%"class.llvm::SmallVectorTemplateBase.147" = type { %"class.llvm::SmallVectorTemplateCommon.148" }
%"class.llvm::SmallVectorTemplateCommon.148" = type { %"class.llvm::SmallVectorBase.149" }
%"class.llvm::SmallVectorBase.149" = type { ptr, i64, i64 }
%"struct.llvm::SmallVectorStorage.150" = type { [32 x i8] }
%"class.llvm::SmallVectorImpl.160" = type { %"class.llvm::SmallVectorTemplateBase.161" }
%"class.llvm::SmallVectorTemplateBase.161" = type { %"class.llvm::SmallVectorTemplateCommon.162" }
%"class.llvm::SmallVectorTemplateCommon.162" = type { %"class.llvm::SmallVectorBase" }
%"class.llvm::BitVector" = type <{ %"class.llvm::SmallVector.173", i32, [4 x i8] }>
%"class.llvm::SmallVector.173" = type { %"class.llvm::SmallVectorImpl.174", %"struct.llvm::SmallVectorStorage.177" }
%"class.llvm::SmallVectorImpl.174" = type { %"class.llvm::SmallVectorTemplateBase.175" }
%"class.llvm::SmallVectorTemplateBase.175" = type { %"class.llvm::SmallVectorTemplateCommon.176" }
%"class.llvm::SmallVectorTemplateCommon.176" = type { %"class.llvm::SmallVectorBase" }
%"struct.llvm::SmallVectorStorage.177" = type { [48 x i8] }
%"class.(anonymous namespace)::RegisterCoalescer" = type { %"class.llvm::MachineFunctionPass", %"class.llvm::LiveRangeEdit::Delegate", ptr, ptr, ptr, ptr, ptr, ptr, ptr, %"class.llvm::RegisterClassInfo", %"class.llvm::DenseMap.211", %"class.llvm::DenseMap.214", %"class.llvm::DenseMap.217", %"struct.llvm::LaneBitmask", i8, i8, i8, %"class.llvm::SmallVector.220", %"class.llvm::SmallVector.220", %"class.llvm::SmallPtrSet.225", %"class.llvm::SmallVector.220", %"class.llvm::SmallVector.228", %"class.llvm::DenseSet", %"class.llvm::DenseMap.233" }
%"class.llvm::MachineFunctionPass" = type { %"class.llvm::FunctionPass.base", %"class.llvm::MachineFunctionProperties", %"class.llvm::MachineFunctionProperties", %"class.llvm::MachineFunctionProperties" }
%"class.llvm::FunctionPass.base" = type { %"class.llvm::Pass.base" }
%"class.llvm::Pass.base" = type <{ ptr, ptr, ptr, i32 }>
%"class.llvm::LiveRangeEdit::Delegate" = type { ptr }
%"class.llvm::RegisterClassInfo" = type { %"class.std::unique_ptr.193", i32, ptr, ptr, %"class.llvm::SmallVector.145", %"class.llvm::SmallVector.201", %"class.llvm::BitVector", %"class.llvm::BitVector", %"class.std::unique_ptr.203", %"class.llvm::ArrayRef" }
%"class.std::unique_ptr.193" = type { %"struct.std::__uniq_ptr_data.194" }
%"struct.std::__uniq_ptr_data.194" = type { %"class.std::__uniq_ptr_impl.195" }
%"class.std::__uniq_ptr_impl.195" = type { %"class.std::tuple.196" }
%"class.std::tuple.196" = type { %"struct.std::_Tuple_impl.197" }
%"struct.std::_Tuple_impl.197" = type { %"struct.std::_Head_base.200" }
%"struct.std::_Head_base.200" = type { ptr }
%"class.llvm::SmallVector.201" = type { %"class.llvm::SmallVectorImpl.146", %"struct.llvm::SmallVectorStorage.202" }
%"struct.llvm::SmallVectorStorage.202" = type { [40 x i8] }
%"class.std::unique_ptr.203" = type { %"struct.std::__uniq_ptr_data.204" }
%"struct.std::__uniq_ptr_data.204" = type { %"class.std::__uniq_ptr_impl.205" }
%"class.std::__uniq_ptr_impl.205" = type { %"class.std::tuple.206" }
%"class.std::tuple.206" = type { %"struct.std::_Tuple_impl.207" }
%"struct.std::_Tuple_impl.207" = type { %"struct.std::_Head_base.210" }
%"struct.std::_Head_base.210" = type { ptr }
%"class.llvm::ArrayRef" = type { ptr, i64 }
%"class.llvm::DenseMap.211" = type <{ ptr, i32, i32, i32, [4 x i8] }>
%"class.llvm::DenseMap.214" = type <{ ptr, i32, i32, i32, [4 x i8] }>
%"class.llvm::DenseMap.217" = type <{ ptr, i32, i32, i32, [4 x i8] }>
%"class.llvm::SmallPtrSet.225" = type { %"class.llvm::SmallPtrSetImpl.base.227", [8 x ptr] }
%"class.llvm::SmallPtrSetImpl.base.227" = type { %"class.llvm::SmallPtrSetImplBase.base" }
%"class.llvm::SmallVector.220" = type { %"class.llvm::SmallVectorImpl.221", %"struct.llvm::SmallVectorStorage.224" }
%"class.llvm::SmallVectorImpl.221" = type { %"class.llvm::SmallVectorTemplateBase.222" }
%"class.llvm::SmallVectorTemplateBase.222" = type { %"class.llvm::SmallVectorTemplateCommon.223" }
%"class.llvm::SmallVectorTemplateCommon.223" = type { %"class.llvm::SmallVectorBase" }
%"struct.llvm::SmallVectorStorage.224" = type { [64 x i8] }
%"class.llvm::SmallVector.228" = type { %"class.llvm::SmallVectorImpl.160", %"struct.llvm::SmallVectorStorage.229" }
%"struct.llvm::SmallVectorStorage.229" = type { [32 x i8] }
%"class.llvm::DenseSet" = type { %"class.llvm::detail::DenseSetImpl" }
%"class.llvm::detail::DenseSetImpl" = type { %"class.llvm::DenseMap.230" }
%"class.llvm::DenseMap.230" = type <{ ptr, i32, i32, i32, [4 x i8] }>
%"class.llvm::DenseMap.233" = type <{ ptr, i32, i32, i32, [4 x i8] }>
%"class.llvm::LiveIntervals" = type { ptr, ptr, ptr, ptr, ptr, ptr, %"class.std::unique_ptr.271", %"class.llvm::BumpPtrAllocatorImpl", %"class.llvm::IndexedMap.279", %"class.llvm::SmallVector.286", %"class.llvm::SmallVector.291", %"class.llvm::SmallVector.296", %"class.llvm::SmallVector.301" }
%"class.std::unique_ptr.271" = type { %"struct.std::__uniq_ptr_data.272" }
%"struct.std::__uniq_ptr_data.272" = type { %"class.std::__uniq_ptr_impl.273" }
%"class.std::__uniq_ptr_impl.273" = type { %"class.std::tuple.274" }
%"class.std::tuple.274" = type { %"struct.std::_Tuple_impl.275" }
%"struct.std::_Tuple_impl.275" = type { %"struct.std::_Head_base.278" }
%"struct.std::_Head_base.278" = type { ptr }
%"class.llvm::IndexedMap.279" = type <{ %"class.llvm::SmallVector.280", ptr, [8 x i8] }>
%"class.llvm::SmallVector.280" = type { %"class.llvm::SmallVectorImpl.281" }
%"class.llvm::SmallVectorImpl.281" = type { %"class.llvm::SmallVectorTemplateBase.282" }
%"class.llvm::SmallVectorTemplateBase.282" = type { %"class.llvm::SmallVectorTemplateCommon.283" }
%"class.llvm::SmallVectorTemplateCommon.283" = type { %"class.llvm::SmallVectorBase" }
%"class.llvm::SmallVector.286" = type { %"class.llvm::SmallVectorImpl.287", %"struct.llvm::SmallVectorStorage.290" }
%"class.llvm::SmallVectorImpl.287" = type { %"class.llvm::SmallVectorTemplateBase.288" }
%"class.llvm::SmallVectorTemplateBase.288" = type { %"class.llvm::SmallVectorTemplateCommon.289" }
%"class.llvm::SmallVectorTemplateCommon.289" = type { %"class.llvm::SmallVectorBase" }
%"struct.llvm::SmallVectorStorage.290" = type { [64 x i8] }
%"class.llvm::SmallVector.291" = type { %"class.llvm::SmallVectorImpl.292", %"struct.llvm::SmallVectorStorage.295" }
%"class.llvm::SmallVectorImpl.292" = type { %"class.llvm::SmallVectorTemplateBase.293" }
%"class.llvm::SmallVectorTemplateBase.293" = type { %"class.llvm::SmallVectorTemplateCommon.294" }
%"class.llvm::SmallVectorTemplateCommon.294" = type { %"class.llvm::SmallVectorBase" }
%"struct.llvm::SmallVectorStorage.295" = type { [64 x i8] }
%"class.llvm::SmallVector.296" = type { %"class.llvm::SmallVectorImpl.297", %"struct.llvm::SmallVectorStorage.300" }
%"class.llvm::SmallVectorImpl.297" = type { %"class.llvm::SmallVectorTemplateBase.298" }
%"class.llvm::SmallVectorTemplateBase.298" = type { %"class.llvm::SmallVectorTemplateCommon.299" }
%"class.llvm::SmallVectorTemplateCommon.299" = type { %"class.llvm::SmallVectorBase" }
%"struct.llvm::SmallVectorStorage.300" = type { [64 x i8] }
%"class.llvm::SmallVector.301" = type { %"class.llvm::SmallVectorImpl.302" }
%"class.llvm::SmallVectorImpl.302" = type { %"class.llvm::SmallVectorTemplateBase.303" }
%"class.llvm::SmallVectorTemplateBase.303" = type { %"class.llvm::SmallVectorTemplateCommon.304" }
%"class.llvm::SmallVectorTemplateCommon.304" = type { %"class.llvm::SmallVectorBase" }
%"class.std::function.596" = type { %"class.std::_Function_base", ptr }
%class.anon.599 = type { ptr, ptr, ptr, ptr }

; Function Attrs: mustprogress nounwind uwtable
define linkonce_odr hidden noundef ptr @_ZNSt9_Any_data9_M_accessEv(ptr noundef nonnull align 8 dereferenceable(16) %0) #1 comdat align 2 {
  %2 = alloca ptr, align 8
  store ptr %0, ptr %2, align 8
  %3 = load ptr, ptr %2, align 8
  %4 = getelementptr inbounds [16 x i8], ptr %3, i64 0, i64 0
  ret ptr %4
}

; Function Attrs: mustprogress nounwind uwtable
define internal noundef nonnull align 8 dereferenceable(8) ptr @"_ZNSt9_Any_data9_M_accessIPZN12_GLOBAL__N_117RegisterCoalescer17mergeSubRangeIntoERN4llvm12LiveIntervalERKNS3_9LiveRangeENS3_11LaneBitmaskERNS3_13CoalescerPairEjE3$_0EERT_v"(ptr noundef nonnull align 8 dereferenceable(16) %0) #1 align 2 {
  %2 = alloca ptr, align 8
  store ptr %0, ptr %2, align 8
  %3 = load ptr, ptr %2, align 8
  %4 = call noundef ptr @_ZNSt9_Any_data9_M_accessEv(ptr noundef nonnull align 8 dereferenceable(16) %3) #2
  ret ptr %4
}

; Function Attrs: mustprogress nounwind uwtable
define internal void @"_ZNSt14_Function_base13_Base_managerIZN12_GLOBAL__N_117RegisterCoalescer17mergeSubRangeIntoERN4llvm12LiveIntervalERKNS3_9LiveRangeENS3_11LaneBitmaskERNS3_13CoalescerPairEjE3$_0E9_M_createISC_EEvRSt9_Any_dataOT_St17integral_constantIbLb0EE"(ptr noundef nonnull align 8 dereferenceable(16) %0, ptr noundef nonnull align 8 dereferenceable(32) %1) #1 align 2 {
  %3 = alloca ptr, align 8
  %4 = alloca ptr, align 8
  store ptr %0, ptr %3, align 8
  store ptr %1, ptr %4, align 8
  %5 = call noalias noundef nonnull ptr @_Znwm(i64 noundef 32) #12
  %6 = load ptr, ptr %4, align 8
  call void @llvm.memcpy.p0.p0.i64(ptr align 16 %5, ptr align 8 %6, i64 32, i1 false)
  %7 = load ptr, ptr %3, align 8
  %8 = call noundef nonnull align 8 dereferenceable(8) ptr @"_ZNSt9_Any_data9_M_accessIPZN12_GLOBAL__N_117RegisterCoalescer17mergeSubRangeIntoERN4llvm12LiveIntervalERKNS3_9LiveRangeENS3_11LaneBitmaskERNS3_13CoalescerPairEjE3$_0EERT_v"(ptr noundef nonnull align 8 dereferenceable(16) %7) #2
  store ptr %5, ptr %8, align 8
  ret void
}

; Function Attrs: mustprogress nounwind uwtable
define linkonce_odr hidden void @_ZNSt14_Function_baseD2Ev(ptr noundef nonnull align 8 dereferenceable(24) %0) unnamed_addr #1 comdat align 2 {
  %2 = alloca ptr, align 8
  store ptr %0, ptr %2, align 8
  %3 = load ptr, ptr %2, align 8
  %4 = getelementptr inbounds nuw %"class.std::_Function_base", ptr %3, i32 0, i32 1
  %5 = load ptr, ptr %4, align 8
  %6 = icmp ne ptr %5, null
  br i1 %6, label %7, label %13

7:                                                ; preds = %1
  %8 = getelementptr inbounds nuw %"class.std::_Function_base", ptr %3, i32 0, i32 1
  %9 = load ptr, ptr %8, align 8
  %10 = getelementptr inbounds nuw %"class.std::_Function_base", ptr %3, i32 0, i32 0
  %11 = getelementptr inbounds nuw %"class.std::_Function_base", ptr %3, i32 0, i32 0
  %12 = call noundef zeroext i1 %9(ptr noundef nonnull align 8 dereferenceable(16) %10, ptr noundef nonnull align 8 dereferenceable(16) %11, i32 noundef 3)
  br label %13

13:                                               ; preds = %7, %1
  ret void
}

; Function Attrs: mustprogress nounwind uwtable
define internal void @"_ZNSt14_Function_base13_Base_managerIZN12_GLOBAL__N_117RegisterCoalescer17mergeSubRangeIntoERN4llvm12LiveIntervalERKNS3_9LiveRangeENS3_11LaneBitmaskERNS3_13CoalescerPairEjE3$_0E15_M_init_functorISC_EEvRSt9_Any_dataOT_"(ptr noundef nonnull align 8 dereferenceable(16) %0, ptr noundef nonnull align 8 dereferenceable(32) %1) #1 align 2 {
  %3 = alloca ptr, align 8
  %4 = alloca ptr, align 8
  store ptr %0, ptr %3, align 8
  store ptr %1, ptr %4, align 8
  %5 = load ptr, ptr %3, align 8
  %6 = load ptr, ptr %4, align 8
  call void @"_ZNSt14_Function_base13_Base_managerIZN12_GLOBAL__N_117RegisterCoalescer17mergeSubRangeIntoERN4llvm12LiveIntervalERKNS3_9LiveRangeENS3_11LaneBitmaskERNS3_13CoalescerPairEjE3$_0E9_M_createISC_EEvRSt9_Any_dataOT_St17integral_constantIbLb0EE"(ptr noundef nonnull align 8 dereferenceable(16) %5, ptr noundef nonnull align 8 dereferenceable(32) %6)
  ret void
}

; Function Attrs: mustprogress nounwind uwtable
define internal noundef zeroext i1 @"_ZNSt14_Function_base13_Base_managerIZN12_GLOBAL__N_117RegisterCoalescer17mergeSubRangeIntoERN4llvm12LiveIntervalERKNS3_9LiveRangeENS3_11LaneBitmaskERNS3_13CoalescerPairEjE3$_0E21_M_not_empty_functionISC_EEbRKT_"(ptr noundef nonnull align 8 dereferenceable(32) %0) #1 align 2 {
  %2 = alloca ptr, align 8
  store ptr %0, ptr %2, align 8
  ret i1 true
}

; Function Attrs: mustprogress nounwind uwtable
define linkonce_odr hidden void @_ZNSt14_Function_baseC2Ev(ptr noundef nonnull align 8 dereferenceable(24) %0) unnamed_addr #1 comdat align 2 {
  %2 = alloca ptr, align 8
  store ptr %0, ptr %2, align 8
  %3 = load ptr, ptr %2, align 8
  %4 = getelementptr inbounds nuw %"class.std::_Function_base", ptr %3, i32 0, i32 0
  store ptr null, ptr %4, align 8
  %5 = getelementptr inbounds nuw %"class.std::_Function_base", ptr %3, i32 0, i32 1
  store ptr null, ptr %5, align 8
  ret void
}

; Function Attrs: mustprogress nounwind uwtable
define linkonce_odr hidden void @_ZNSt8functionIFvRN4llvm12LiveInterval8SubRangeEEED2Ev(ptr noundef nonnull align 8 dereferenceable(32) %0) unnamed_addr #1 comdat align 2 {
  %2 = alloca ptr, align 8
  store ptr %0, ptr %2, align 8
  %3 = load ptr, ptr %2, align 8
  call void @_ZNSt14_Function_baseD2Ev(ptr noundef nonnull align 8 dereferenceable(24) %3) #2
  ret void
}

; Function Attrs: mustprogress nounwind uwtable
define linkonce_odr hidden noundef ptr @_ZNK4llvm13LiveIntervals14getSlotIndexesEv(ptr noundef nonnull align 8 dereferenceable(440) %0) #1 comdat align 2 {
  %2 = alloca ptr, align 8
  store ptr %0, ptr %2, align 8
  %3 = load ptr, ptr %2, align 8
  %4 = getelementptr inbounds nuw %"class.llvm::LiveIntervals", ptr %3, i32 0, i32 4
  %5 = load ptr, ptr %4, align 8
  ret ptr %5
}

; Function Attrs: mustprogress nounwind uwtable
define internal void @"_ZNSt8functionIFvRN4llvm12LiveInterval8SubRangeEEEC2IZN12_GLOBAL__N_117RegisterCoalescer17mergeSubRangeIntoERS1_RKNS0_9LiveRangeENS0_11LaneBitmaskERNS0_13CoalescerPairEjE3$_0vEEOT_"(ptr noundef nonnull align 8 dereferenceable(32) %0, ptr noundef nonnull align 8 dereferenceable(32) %1) unnamed_addr #1 align 2 {
  %3 = alloca ptr, align 8
  %4 = alloca ptr, align 8
  store ptr %0, ptr %3, align 8
  store ptr %1, ptr %4, align 8
  %5 = load ptr, ptr %3, align 8
  %6 = getelementptr inbounds i8, ptr %5, i64 0
  call void @llvm.memset.p0.i64(ptr align 8 %6, i8 0, i64 24, i1 false)
  call void @_ZNSt14_Function_baseC2Ev(ptr noundef nonnull align 8 dereferenceable(24) %5) #2
  %7 = getelementptr inbounds nuw %"class.std::function.596", ptr %5, i32 0, i32 1
  store ptr null, ptr %7, align 8
  %8 = load ptr, ptr %4, align 8
  %9 = call noundef zeroext i1 @"_ZNSt14_Function_base13_Base_managerIZN12_GLOBAL__N_117RegisterCoalescer17mergeSubRangeIntoERN4llvm12LiveIntervalERKNS3_9LiveRangeENS3_11LaneBitmaskERNS3_13CoalescerPairEjE3$_0E21_M_not_empty_functionISC_EEbRKT_"(ptr noundef nonnull align 8 dereferenceable(32) %8) #2
  br i1 %9, label %10, label %15

10:                                               ; preds = %2
  %11 = getelementptr inbounds nuw %"class.std::_Function_base", ptr %5, i32 0, i32 0
  %12 = load ptr, ptr %4, align 8
  call void @"_ZNSt14_Function_base13_Base_managerIZN12_GLOBAL__N_117RegisterCoalescer17mergeSubRangeIntoERN4llvm12LiveIntervalERKNS3_9LiveRangeENS3_11LaneBitmaskERNS3_13CoalescerPairEjE3$_0E15_M_init_functorISC_EEvRSt9_Any_dataOT_"(ptr noundef nonnull align 8 dereferenceable(16) %11, ptr noundef nonnull align 8 dereferenceable(32) %12)
  %13 = getelementptr inbounds nuw %"class.std::function.596", ptr %5, i32 0, i32 1
  store ptr @"_ZNSt17_Function_handlerIFvRN4llvm12LiveInterval8SubRangeEEZN12_GLOBAL__N_117RegisterCoalescer17mergeSubRangeIntoERS1_RKNS0_9LiveRangeENS0_11LaneBitmaskERNS0_13CoalescerPairEjE3$_0E9_M_invokeERKSt9_Any_dataS3_", ptr %13, align 8
  %14 = getelementptr inbounds nuw %"class.std::_Function_base", ptr %5, i32 0, i32 1
  store ptr @"_ZNSt17_Function_handlerIFvRN4llvm12LiveInterval8SubRangeEEZN12_GLOBAL__N_117RegisterCoalescer17mergeSubRangeIntoERS1_RKNS0_9LiveRangeENS0_11LaneBitmaskERNS0_13CoalescerPairEjE3$_0E10_M_managerERSt9_Any_dataRKSG_St18_Manager_operation", ptr %14, align 8
  br label %15

15:                                               ; preds = %10, %2
  ret void
}

; Function Attrs: mustprogress nounwind uwtable
define linkonce_odr hidden noundef nonnull align 8 dereferenceable(96) ptr @_ZN4llvm13LiveIntervals18getVNInfoAllocatorEv(ptr noundef nonnull align 8 dereferenceable(440) %0) #1 comdat align 2 {
  %2 = alloca ptr, align 8
  store ptr %0, ptr %2, align 8
  %3 = load ptr, ptr %2, align 8
  %4 = getelementptr inbounds nuw %"class.llvm::LiveIntervals", ptr %3, i32 0, i32 7
  ret ptr %4
}

; Function Attrs: mustprogress nounwind uwtable
define internal void @_ZN12_GLOBAL__N_117RegisterCoalescer17mergeSubRangeIntoERN4llvm12LiveIntervalERKNS1_9LiveRangeENS1_11LaneBitmaskERNS1_13CoalescerPairEj(ptr noundef nonnull align 8 dereferenceable(960) %0, ptr noundef nonnull align 8 dereferenceable(120) %1, ptr noundef nonnull align 8 dereferenceable(104) %2, i64 %3, ptr noundef nonnull align 8 dereferenceable(40) %4, i32 noundef %5) #1 align 2 {
  %7 = alloca %"struct.llvm::LaneBitmask", align 8
  %8 = alloca ptr, align 8
  %9 = alloca ptr, align 8
  %10 = alloca ptr, align 8
  %11 = alloca ptr, align 8
  %12 = alloca i32, align 4
  %13 = alloca ptr, align 8
  %14 = alloca %"struct.llvm::LaneBitmask", align 8
  %15 = alloca %"class.std::function.596", align 8
  %16 = alloca %class.anon.599, align 8
  %17 = getelementptr inbounds nuw %"struct.llvm::LaneBitmask", ptr %7, i32 0, i32 0
  store i64 %3, ptr %17, align 8
  store ptr %0, ptr %8, align 8
  store ptr %1, ptr %9, align 8
  store ptr %2, ptr %10, align 8
  store ptr %4, ptr %11, align 8
  store i32 %5, ptr %12, align 4
  %18 = load ptr, ptr %8, align 8
  %19 = getelementptr inbounds nuw %"class.(anonymous namespace)::RegisterCoalescer", ptr %18, i32 0, i32 6
  %20 = load ptr, ptr %19, align 8
  %21 = call noundef nonnull align 8 dereferenceable(96) ptr @_ZN4llvm13LiveIntervals18getVNInfoAllocatorEv(ptr noundef nonnull align 8 dereferenceable(440) %20)
  store ptr %21, ptr %13, align 8
  %22 = load ptr, ptr %9, align 8
  %23 = load ptr, ptr %13, align 8
  call void @llvm.memcpy.p0.p0.i64(ptr align 8 %14, ptr align 8 %7, i64 8, i1 false)
  %24 = getelementptr inbounds nuw %class.anon.599, ptr %16, i32 0, i32 0
  store ptr %18, ptr %24, align 8
  %25 = getelementptr inbounds nuw %class.anon.599, ptr %16, i32 0, i32 1
  %26 = load ptr, ptr %13, align 8
  store ptr %26, ptr %25, align 8
  %27 = getelementptr inbounds nuw %class.anon.599, ptr %16, i32 0, i32 2
  %28 = load ptr, ptr %10, align 8
  store ptr %28, ptr %27, align 8
  %29 = getelementptr inbounds nuw %class.anon.599, ptr %16, i32 0, i32 3
  %30 = load ptr, ptr %11, align 8
  store ptr %30, ptr %29, align 8
  call void @"_ZNSt8functionIFvRN4llvm12LiveInterval8SubRangeEEEC2IZN12_GLOBAL__N_117RegisterCoalescer17mergeSubRangeIntoERS1_RKNS0_9LiveRangeENS0_11LaneBitmaskERNS0_13CoalescerPairEjE3$_0vEEOT_"(ptr noundef nonnull align 8 dereferenceable(32) %15, ptr noundef nonnull align 8 dereferenceable(32) %16)
  %31 = getelementptr inbounds nuw %"class.(anonymous namespace)::RegisterCoalescer", ptr %18, i32 0, i32 6
  %32 = load ptr, ptr %31, align 8
  %33 = call noundef ptr @_ZNK4llvm13LiveIntervals14getSlotIndexesEv(ptr noundef nonnull align 8 dereferenceable(440) %32)
  %34 = getelementptr inbounds nuw %"class.(anonymous namespace)::RegisterCoalescer", ptr %18, i32 0, i32 4
  %35 = load ptr, ptr %34, align 8
  %36 = load i32, ptr %12, align 4
  %37 = getelementptr inbounds nuw %"struct.llvm::LaneBitmask", ptr %14, i32 0, i32 0
  %38 = load i64, ptr %37, align 8
  call void @_ZN4llvm12LiveInterval15refineSubRangesERNS_20BumpPtrAllocatorImplINS_15MallocAllocatorELm4096ELm4096ELm128EEENS_11LaneBitmaskESt8functionIFvRNS0_8SubRangeEEERKNS_11SlotIndexesERKNS_18TargetRegisterInfoEj(ptr noundef nonnull align 8 dereferenceable(120) %22, ptr noundef nonnull align 8 dereferenceable(96) %23, i64 %38, ptr noundef %15, ptr noundef nonnull align 8 dereferenceable(432) %33, ptr noundef nonnull align 8 dereferenceable(308) %35, i32 noundef %36)
  call void @_ZNSt8functionIFvRN4llvm12LiveInterval8SubRangeEEED2Ev(ptr noundef nonnull align 8 dereferenceable(32) %15) #2
  ret void
}