; Function Attrs: mustprogress nounwind uwtable
define internal fastcc void @_ZN12_GLOBAL__N_117RegisterCoalescer17mergeSubRangeIntoERN4llvm12LiveIntervalERKNS1_9LiveRangeENS1_11LaneBitmaskERNS1_13CoalescerPairEj(ptr noundef nonnull align 8 dereferenceable(960) %0, ptr noundef nonnull align 8 dereferenceable(120) %1, ptr noundef nonnull align 8 dereferenceable(104) %2, i64 %3, ptr noundef nonnull align 8 dereferenceable(40) %4, i32 noundef %5) unnamed_addr #0 align 2 {
  %7 = alloca %"class.std::function.596", align 8
  %8 = getelementptr inbounds nuw i8, ptr %0, i64 96
  %9 = load ptr, ptr %8, align 8
  %10 = getelementptr inbounds nuw i8, ptr %9, i64 56
  %11 = getelementptr inbounds nuw i8, ptr %7, i64 16
  %12 = getelementptr inbounds nuw i8, ptr %7, i64 24
  %13 = getelementptr inbounds i8, ptr %7, i64 8
  store i64 0, ptr %13, align 8
  %14 = tail call noalias noundef nonnull dereferenceable(32) ptr @_Znwm(i64 noundef 32) #22
  store ptr %0, ptr %14, align 16
  %.sroa.2.0..sroa_idx = getelementptr inbounds i8, ptr %14, i64 8
  store ptr %10, ptr %.sroa.2.0..sroa_idx, align 8
  %.sroa.3.0..sroa_idx = getelementptr inbounds i8, ptr %14, i64 16
  store ptr %2, ptr %.sroa.3.0..sroa_idx, align 16
  %.sroa.4.0..sroa_idx = getelementptr inbounds i8, ptr %14, i64 24
  store ptr %4, ptr %.sroa.4.0..sroa_idx, align 8
  store ptr %14, ptr %7, align 8
  store ptr @"_ZNSt17_Function_handlerIFvRN4llvm12LiveInterval8SubRangeEEZN12_GLOBAL__N_117RegisterCoalescer17mergeSubRangeIntoERS1_RKNS0_9LiveRangeENS0_11LaneBitmaskERNS0_13CoalescerPairEjE3$_0E9_M_invokeERKSt9_Any_dataS3_", ptr %12, align 8
  store ptr @"_ZNSt17_Function_handlerIFvRN4llvm12LiveInterval8SubRangeEEZN12_GLOBAL__N_117RegisterCoalescer17mergeSubRangeIntoERS1_RKNS0_9LiveRangeENS0_11LaneBitmaskERNS0_13CoalescerPairEjE3$_0E10_M_managerERSt9_Any_dataRKSG_St18_Manager_operation", ptr %11, align 8
  %15 = getelementptr inbounds nuw i8, ptr %9, i64 32
  %16 = load ptr, ptr %15, align 8
  %17 = getelementptr inbounds nuw i8, ptr %0, i64 80
  %18 = load ptr, ptr %17, align 8
  call void @_ZN4llvm12LiveInterval15refineSubRangesERNS_20BumpPtrAllocatorImplINS_15MallocAllocatorELm4096ELm4096ELm128EEENS_11LaneBitmaskESt8functionIFvRNS0_8SubRangeEEERKNS_11SlotIndexesERKNS_18TargetRegisterInfoEj(ptr noundef nonnull align 8 dereferenceable(120) %1, ptr noundef nonnull align 8 dereferenceable(96) %10, i64 %3, ptr noundef nonnull %7, ptr noundef nonnull align 8 dereferenceable(432) %16, ptr noundef nonnull align 8 dereferenceable(308) %18, i32 noundef %5) #20
  %19 = load ptr, ptr %11, align 8
  %.not.i.i = icmp eq ptr %19, null
  br i1 %.not.i.i, label %_ZNSt8functionIFvRN4llvm12LiveInterval8SubRangeEEED2Ev.exit, label %20

20:                                               ; preds = %6
  %21 = call noundef zeroext i1 %19(ptr noundef nonnull align 8 dereferenceable(16) %7, ptr noundef nonnull align 8 dereferenceable(16) %7, i32 noundef 3) #20
  br label %_ZNSt8functionIFvRN4llvm12LiveInterval8SubRangeEEED2Ev.exit

_ZNSt8functionIFvRN4llvm12LiveInterval8SubRangeEEED2Ev.exit: ; preds = %6, %20
  ret void
}